target datalayout = "e-m:e-p270:32:32-p271:32:32-p272:64:64-i64:64-i128:128-f80:128-n8:16:32:64-S128"
target triple = "x86_64-pc-linux-gnu"

%class.bufferedStream = type <{ %class.outputStream, ptr, i64, i64, i64, i8, [7 x i8] }>
%class.outputStream = type { ptr, i32, i8, i32, i64, %class.TimeStamp, ptr, i64 }
%class.TimeStamp = type { i64 }
%class.ttyLocker = type { i64 }

@_ZL12granule_size = internal global i64 0, align 8
@.str.31 = private unnamed_addr constant [3 x i8] c"%s\00", align 1
@.str.110 = private unnamed_addr constant [9 x i8] c"0x%016lx\00", align 1
@.str.155 = private unnamed_addr constant [2 x i8] c"|\00", align 1
@.str.210 = private unnamed_addr constant [13 x i8] c"(+0x%08x): |\00", align 1

; Function Attrs: mustprogress nounwind uwtable
define linkonce_odr hidden noundef i64 @_Z3p2iPVKv(ptr noundef %0) #1 comdat {
  %2 = alloca ptr, align 8
  store ptr %0, ptr %2, align 8
  %3 = load ptr, ptr %2, align 8
  %4 = ptrtoint ptr %3 to i64
  ret i64 %4
}

; Function Attrs: mustprogress nounwind uwtable
define linkonce_odr hidden void @_ZN9ttyLockerD2Ev(ptr noundef nonnull align 8 dereferenceable(8) %0) unnamed_addr #1 comdat align 2 {
  %2 = alloca ptr, align 8
  store ptr %0, ptr %2, align 8
  %3 = load ptr, ptr %2, align 8
  %4 = getelementptr inbounds %class.ttyLocker, ptr %3, i32 0, i32 0
  %5 = load i64, ptr %4, align 8
  call void @_ZN9ttyLocker11release_ttyEl(i64 noundef %5)
  ret void
}

; Function Attrs: mustprogress nounwind uwtable
define linkonce_odr hidden void @_ZN14bufferedStream5resetEv(ptr noundef nonnull align 8 dereferenceable(89) %0) #1 comdat align 2 {
  %2 = alloca ptr, align 8
  store ptr %0, ptr %2, align 8
  %3 = load ptr, ptr %2, align 8
  %4 = getelementptr inbounds %class.bufferedStream, ptr %3, i32 0, i32 2
  store i64 0, ptr %4, align 8
  %5 = getelementptr inbounds %class.outputStream, ptr %3, i32 0, i32 4
  store i64 0, ptr %5, align 8
  %6 = getelementptr inbounds %class.outputStream, ptr %3, i32 0, i32 3
  store i32 0, ptr %6, align 8
  ret void
}

; Function Attrs: mustprogress nounwind uwtable
define linkonce_odr hidden void @_ZN9ttyLockerC2Ev(ptr noundef nonnull align 8 dereferenceable(8) %0) unnamed_addr #1 comdat align 2 {
  %2 = alloca ptr, align 8
  store ptr %0, ptr %2, align 8
  %3 = load ptr, ptr %2, align 8
  %4 = call noundef i64 @_ZN9ttyLocker8hold_ttyEv()
  %5 = getelementptr inbounds %class.ttyLocker, ptr %3, i32 0, i32 0
  store i64 %4, ptr %5, align 8
  ret void
}

; Function Attrs: mustprogress nounwind uwtable
define linkonce_odr hidden noundef i64 @_ZN14bufferedStream4sizeEv(ptr noundef nonnull align 8 dereferenceable(89) %0) #1 comdat align 2 {
  %2 = alloca ptr, align 8
  store ptr %0, ptr %2, align 8
  %3 = load ptr, ptr %2, align 8
  %4 = getelementptr inbounds %class.bufferedStream, ptr %3, i32 0, i32 2
  %5 = load i64, ptr %4, align 8
  ret i64 %5
}

; Function Attrs: mustprogress nounwind uwtable
define hidden void @_ZN13CodeHeapState16print_line_delimEP12outputStreamP14bufferedStreamPcjj(ptr noundef %0, ptr noundef %1, ptr noundef %2, i32 noundef %3, i32 noundef %4) #1 align 2 {
  %6 = alloca ptr, align 8
  %7 = alloca ptr, align 8
  %8 = alloca ptr, align 8
  %9 = alloca i32, align 4
  %10 = alloca i32, align 4
  %11 = alloca %class.ttyLocker, align 8
  store ptr %0, ptr %6, align 8
  store ptr %1, ptr %7, align 8
  store ptr %2, ptr %8, align 8
  store i32 %3, ptr %9, align 4
  store i32 %4, ptr %10, align 4
  %12 = load i32, ptr %9, align 4
  %13 = load i32, ptr %10, align 4
  %14 = urem i32 %12, %13
  %15 = icmp eq i32 %14, 0
  br i1 %15, label %16, label %48

16:                                               ; preds = %5
  %17 = load i32, ptr %9, align 4
  %18 = icmp ugt i32 %17, 0
  br i1 %18, label %19, label %21

19:                                               ; preds = %16
  %20 = load ptr, ptr %7, align 8
  call void (ptr, ptr, ...) @_ZN12outputStream5printEPKcz(ptr noundef nonnull align 8 dereferenceable(56) %20, ptr noundef @.str.155)
  br label %21

21:                                               ; preds = %19, %16
  %22 = load ptr, ptr %7, align 8
  call void @_ZN12outputStream2crEv(ptr noundef nonnull align 8 dereferenceable(56) %22)
  %23 = load ptr, ptr %7, align 8
  %24 = call noundef i64 @_ZN14bufferedStream4sizeEv(ptr noundef nonnull align 8 dereferenceable(89) %23)
  %25 = icmp ugt i64 %24, 3072
  br i1 %25, label %26, label %31

26:                                               ; preds = %21
  call void @_ZN9ttyLockerC2Ev(ptr noundef nonnull align 8 dereferenceable(8) %11)
  %27 = load ptr, ptr %6, align 8
  %28 = load ptr, ptr %7, align 8
  %29 = call noundef ptr @_ZN14bufferedStream9as_stringEv(ptr noundef nonnull align 8 dereferenceable(89) %28)
  call void (ptr, ptr, ...) @_ZN12outputStream5printEPKcz(ptr noundef nonnull align 8 dereferenceable(56) %27, ptr noundef @.str.31, ptr noundef %29)
  %30 = load ptr, ptr %7, align 8
  call void @_ZN14bufferedStream5resetEv(ptr noundef nonnull align 8 dereferenceable(89) %30)
  call void @_ZN9ttyLockerD2Ev(ptr noundef nonnull align 8 dereferenceable(8) %11) #9
  br label %31

31:                                               ; preds = %26, %21
  %32 = load ptr, ptr %7, align 8
  %33 = load ptr, ptr %8, align 8
  %34 = load i32, ptr %9, align 4
  %35 = zext i32 %34 to i64
  %36 = load i64, ptr @_ZL12granule_size, align 8
  %37 = mul i64 %35, %36
  %38 = getelementptr inbounds i8, ptr %33, i64 %37
  %39 = call noundef i64 @_Z3p2iPVKv(ptr noundef %38)
  call void (ptr, ptr, ...) @_ZN12outputStream5printEPKcz(ptr noundef nonnull align 8 dereferenceable(56) %32, ptr noundef @.str.110, i64 noundef %39)
  %40 = load ptr, ptr %7, align 8
  %41 = call noundef i32 @_ZN12outputStream7fill_toEi(ptr noundef nonnull align 8 dereferenceable(56) %40, i32 noundef 19)
  %42 = load ptr, ptr %7, align 8
  %43 = load i32, ptr %9, align 4
  %44 = zext i32 %43 to i64
  %45 = load i64, ptr @_ZL12granule_size, align 8
  %46 = mul i64 %44, %45
  %47 = trunc i64 %46 to i32
  call void (ptr, ptr, ...) @_ZN12outputStream5printEPKcz(ptr noundef nonnull align 8 dereferenceable(56) %42, ptr noundef @.str.210, i32 noundef %47)
  br label %48

48:                                               ; preds = %31, %5
  ret void
}