; Function Attrs: mustprogress nounwind uwtable
define hidden void @_ZN13CodeHeapState16print_line_delimEP12outputStreamP14bufferedStreamPcjj(ptr noundef %0, ptr noundef %1, ptr noundef %2, i32 noundef %3, i32 noundef %4) local_unnamed_addr #1 align 2 {
  %6 = urem i32 %3, %4
  %7 = icmp eq i32 %6, 0
  br i1 %7, label %8, label %29

8:                                                ; preds = %5
  %.not = icmp eq i32 %3, 0
  br i1 %.not, label %10, label %9

9:                                                ; preds = %8
  tail call void (ptr, ptr, ...) @_ZN12outputStream5printEPKcz(ptr noundef nonnull align 8 dereferenceable(56) %1, ptr noundef nonnull @.str.155) #12
  br label %10

10:                                               ; preds = %9, %8
  tail call void @_ZN12outputStream2crEv(ptr noundef nonnull align 8 dereferenceable(56) %1) #12
  %11 = getelementptr inbounds i8, ptr %1, i64 64
  %12 = load i64, ptr %11, align 8
  %13 = icmp ugt i64 %12, 3072
  br i1 %13, label %14, label %19

14:                                               ; preds = %10
  %15 = tail call noundef i64 @_ZN9ttyLocker8hold_ttyEv() #12
  %16 = tail call noundef ptr @_ZN14bufferedStream9as_stringEv(ptr noundef nonnull align 8 dereferenceable(89) %1) #12
  tail call void (ptr, ptr, ...) @_ZN12outputStream5printEPKcz(ptr noundef nonnull align 8 dereferenceable(56) %0, ptr noundef nonnull @.str.31, ptr noundef %16) #12
  store i64 0, ptr %11, align 8
  %17 = getelementptr inbounds i8, ptr %1, i64 24
  store i64 0, ptr %17, align 8
  %18 = getelementptr inbounds i8, ptr %1, i64 16
  store i32 0, ptr %18, align 8
  tail call void @_ZN9ttyLocker11release_ttyEl(i64 noundef %15) #12
  br label %19

19:                                               ; preds = %14, %10
  %20 = zext i32 %3 to i64
  %21 = load i64, ptr @_ZL12granule_size, align 8
  %22 = mul i64 %21, %20
  %23 = getelementptr inbounds i8, ptr %2, i64 %22
  %24 = ptrtoint ptr %23 to i64
  tail call void (ptr, ptr, ...) @_ZN12outputStream5printEPKcz(ptr noundef nonnull align 8 dereferenceable(56) %1, ptr noundef nonnull @.str.110, i64 noundef %24) #12
  %25 = tail call noundef i32 @_ZN12outputStream7fill_toEi(ptr noundef nonnull align 8 dereferenceable(56) %1, i32 noundef 19) #12
  %26 = load i64, ptr @_ZL12granule_size, align 8
  %27 = trunc i64 %26 to i32
  %28 = mul i32 %27, %3
  tail call void (ptr, ptr, ...) @_ZN12outputStream5printEPKcz(ptr noundef nonnull align 8 dereferenceable(56) %1, ptr noundef nonnull @.str.210, i32 noundef %28) #12
  br label %29

29:                                               ; preds = %19, %5
  ret void
}